target datalayout = "e-m:e-p270:32:32-p271:32:32-p272:64:64-i64:64-i128:128-f80:128-n8:16:32:64-S128"
target triple = "x86_64-pc-linux-gnu"

%struct.sat_solver2_t = type { i32, i32, i32, i32, i32, double, double, i32, i32, i32, i32, ptr, ptr, i32, i32, i32, i32, i32, i32, i32, i32, i32, i32, i32, %struct.Sat_Mem_t_, ptr, %struct.veci_t, %struct.veci_t, i32, i32, i32, ptr, ptr, ptr, ptr, ptr, ptr, ptr, ptr, %struct.veci_t, %struct.veci_t, %struct.veci_t, %struct.veci_t, %struct.veci_t, %struct.veci_t, %struct.veci_t, %struct.veci_t, %struct.veci_t, %struct.veci_t, ptr, %struct.veci_t, i32, i32, ptr, double, ptr, i32, %struct.stats_t, i64, i64, i64 }
%struct.Sat_Mem_t_ = type { [2 x i32], [2 x i32], [2 x i32], [2 x i32], i32, i32, i32, i32, ptr }
%struct.veci_t = type { i32, i32, ptr }
%struct.stats_t = type { i32, i32, i32, i64, i64, i64, i64, i64, i64, i64 }
%struct.varinfo2_t = type { i8, [3 x i8] }
%struct.clause_t = type { i32, [0 x i32] }

; Function Attrs: nounwind uwtable
define internal ptr @Sat_MemClause(ptr noundef %0, i32 noundef %1, i32 noundef %2) #0 {
  %4 = alloca ptr, align 8
  %5 = alloca i32, align 4
  %6 = alloca i32, align 4
  store ptr %0, ptr %4, align 8
  store i32 %1, ptr %5, align 4
  store i32 %2, ptr %6, align 4
  %7 = load ptr, ptr %4, align 8
  %8 = getelementptr inbounds %struct.Sat_Mem_t_, ptr %7, i32 0, i32 8
  %9 = load ptr, ptr %8, align 8
  %10 = load i32, ptr %5, align 4
  %11 = sext i32 %10 to i64
  %12 = getelementptr inbounds ptr, ptr %9, i64 %11
  %13 = load ptr, ptr %12, align 8
  %14 = load i32, ptr %6, align 4
  %15 = sext i32 %14 to i64
  %16 = getelementptr inbounds i32, ptr %13, i64 %15
  ret ptr %16
}

; Function Attrs: nounwind uwtable
define internal i32 @Sat_MemHandShift(ptr noundef %0, i32 noundef %1) #0 {
  %3 = alloca ptr, align 8
  %4 = alloca i32, align 4
  store ptr %0, ptr %3, align 8
  store i32 %1, ptr %4, align 4
  %5 = load i32, ptr %4, align 4
  %6 = load ptr, ptr %3, align 8
  %7 = getelementptr inbounds %struct.Sat_Mem_t_, ptr %6, i32 0, i32 5
  %8 = load i32, ptr %7, align 4
  %9 = and i32 %5, %8
  ret i32 %9
}

; Function Attrs: nounwind uwtable
define internal i32 @Sat_MemHandPage(ptr noundef %0, i32 noundef %1) #0 {
  %3 = alloca ptr, align 8
  %4 = alloca i32, align 4
  store ptr %0, ptr %3, align 8
  store i32 %1, ptr %4, align 4
  %5 = load i32, ptr %4, align 4
  %6 = load ptr, ptr %3, align 8
  %7 = getelementptr inbounds %struct.Sat_Mem_t_, ptr %6, i32 0, i32 4
  %8 = load i32, ptr %7, align 8
  %9 = ashr i32 %5, %8
  ret i32 %9
}

; Function Attrs: nounwind uwtable
define internal ptr @veci_begin(ptr noundef %0) #0 {
  %2 = alloca ptr, align 8
  store ptr %0, ptr %2, align 8
  %3 = load ptr, ptr %2, align 8
  %4 = getelementptr inbounds %struct.veci_t, ptr %3, i32 0, i32 2
  %5 = load ptr, ptr %4, align 8
  ret ptr %5
}

; Function Attrs: nounwind uwtable
define internal ptr @Sat_MemClauseHand(ptr noundef %0, i32 noundef %1) #0 {
  %3 = alloca ptr, align 8
  %4 = alloca i32, align 4
  store ptr %0, ptr %3, align 8
  store i32 %1, ptr %4, align 4
  %5 = load i32, ptr %4, align 4
  %6 = icmp ne i32 %5, 0
  br i1 %6, label %7, label %16

7:                                                ; preds = %2
  %8 = load ptr, ptr %3, align 8
  %9 = load ptr, ptr %3, align 8
  %10 = load i32, ptr %4, align 4
  %11 = call i32 @Sat_MemHandPage(ptr noundef %9, i32 noundef %10)
  %12 = load ptr, ptr %3, align 8
  %13 = load i32, ptr %4, align 4
  %14 = call i32 @Sat_MemHandShift(ptr noundef %12, i32 noundef %13)
  %15 = call ptr @Sat_MemClause(ptr noundef %8, i32 noundef %11, i32 noundef %14)
  br label %17

16:                                               ; preds = %2
  br label %17

17:                                               ; preds = %16, %7
  %18 = phi ptr [ %15, %7 ], [ null, %16 ]
  ret ptr %18
}

; Function Attrs: nounwind uwtable
define internal i32 @var_lev_mark(ptr noundef %0, i32 noundef %1) #0 {
  %3 = alloca ptr, align 8
  %4 = alloca i32, align 4
  store ptr %0, ptr %3, align 8
  store i32 %1, ptr %4, align 4
  %5 = load ptr, ptr %3, align 8
  %6 = getelementptr inbounds %struct.sat_solver2_t, ptr %5, i32 0, i32 42
  %7 = call ptr @veci_begin(ptr noundef %6)
  %8 = load ptr, ptr %3, align 8
  %9 = load i32, ptr %4, align 4
  %10 = call i32 @var_level(ptr noundef %8, i32 noundef %9)
  %11 = sext i32 %10 to i64
  %12 = getelementptr inbounds i32, ptr %7, i64 %11
  %13 = load i32, ptr %12, align 4
  %14 = and i32 %13, -2147483648
  %15 = icmp ugt i32 %14, 0
  %16 = zext i1 %15 to i32
  ret i32 %16
}

; Function Attrs: nounwind uwtable
define internal i32 @var_level(ptr noundef %0, i32 noundef %1) #0 {
  %3 = alloca ptr, align 8
  %4 = alloca i32, align 4
  store ptr %0, ptr %3, align 8
  store i32 %1, ptr %4, align 4
  %5 = load ptr, ptr %3, align 8
  %6 = getelementptr inbounds %struct.sat_solver2_t, ptr %5, i32 0, i32 32
  %7 = load ptr, ptr %6, align 8
  %8 = load i32, ptr %4, align 4
  %9 = sext i32 %8 to i64
  %10 = getelementptr inbounds i32, ptr %7, i64 %9
  %11 = load i32, ptr %10, align 4
  ret i32 %11
}

; Function Attrs: nounwind uwtable
define internal i32 @lit_var(i32 noundef %0) #0 {
  %2 = alloca i32, align 4
  store i32 %0, ptr %2, align 4
  %3 = load i32, ptr %2, align 4
  %4 = ashr i32 %3, 1
  ret i32 %4
}

; Function Attrs: nounwind uwtable
define internal void @var_add_tag(ptr noundef %0, i32 noundef %1, i32 noundef %2) #0 {
  %4 = alloca ptr, align 8
  %5 = alloca i32, align 4
  %6 = alloca i32, align 4
  store ptr %0, ptr %4, align 8
  store i32 %1, ptr %5, align 4
  store i32 %2, ptr %6, align 4
  %7 = load ptr, ptr %4, align 8
  %8 = getelementptr inbounds %struct.sat_solver2_t, ptr %7, i32 0, i32 31
  %9 = load ptr, ptr %8, align 8
  %10 = load i32, ptr %5, align 4
  %11 = sext i32 %10 to i64
  %12 = getelementptr inbounds %struct.varinfo2_t, ptr %9, i64 %11
  %13 = load i8, ptr %12, align 4
  %14 = lshr i8 %13, 2
  %15 = and i8 %14, 15
  %16 = zext i8 %15 to i32
  %17 = icmp eq i32 %16, 0
  br i1 %17, label %18, label %22

18:                                               ; preds = %3
  %19 = load ptr, ptr %4, align 8
  %20 = getelementptr inbounds %struct.sat_solver2_t, ptr %19, i32 0, i32 39
  %21 = load i32, ptr %5, align 4
  call void @veci_push(ptr noundef %20, i32 noundef %21)
  br label %22

22:                                               ; preds = %18, %3
  %23 = load i32, ptr %6, align 4
  %24 = load ptr, ptr %4, align 8
  %25 = getelementptr inbounds %struct.sat_solver2_t, ptr %24, i32 0, i32 31
  %26 = load ptr, ptr %25, align 8
  %27 = load i32, ptr %5, align 4
  %28 = sext i32 %27 to i64
  %29 = getelementptr inbounds %struct.varinfo2_t, ptr %26, i64 %28
  %30 = load i8, ptr %29, align 4
  %31 = lshr i8 %30, 2
  %32 = and i8 %31, 15
  %33 = zext i8 %32 to i32
  %34 = or i32 %33, %23
  %35 = trunc i32 %34 to i8
  %36 = load i8, ptr %29, align 4
  %37 = and i8 %35, 15
  %38 = shl i8 %37, 2
  %39 = and i8 %36, -61
  %40 = or i8 %39, %38
  store i8 %40, ptr %29, align 4
  ret void
}

; Function Attrs: nounwind uwtable
define internal ptr @clause2_read(ptr noundef %0, i32 noundef %1) #0 {
  %3 = alloca ptr, align 8
  %4 = alloca i32, align 4
  store ptr %0, ptr %3, align 8
  store i32 %1, ptr %4, align 4
  %5 = load ptr, ptr %3, align 8
  %6 = getelementptr inbounds %struct.sat_solver2_t, ptr %5, i32 0, i32 24
  %7 = load i32, ptr %4, align 4
  %8 = call ptr @Sat_MemClauseHand(ptr noundef %6, i32 noundef %7)
  ret ptr %8
}

; Function Attrs: nounwind uwtable
define internal i32 @var_reason(ptr noundef %0, i32 noundef %1) #0 {
  %3 = alloca ptr, align 8
  %4 = alloca i32, align 4
  store ptr %0, ptr %3, align 8
  store i32 %1, ptr %4, align 4
  %5 = load ptr, ptr %3, align 8
  %6 = getelementptr inbounds %struct.sat_solver2_t, ptr %5, i32 0, i32 36
  %7 = load ptr, ptr %6, align 8
  %8 = load i32, ptr %4, align 4
  %9 = sext i32 %8 to i64
  %10 = getelementptr inbounds i32, ptr %7, i64 %9
  %11 = load i32, ptr %10, align 4
  ret i32 %11
}

; Function Attrs: nounwind uwtable
define internal i32 @var_tag(ptr noundef %0, i32 noundef %1) #0 {
  %3 = alloca ptr, align 8
  %4 = alloca i32, align 4
  store ptr %0, ptr %3, align 8
  store i32 %1, ptr %4, align 4
  %5 = load ptr, ptr %3, align 8
  %6 = getelementptr inbounds %struct.sat_solver2_t, ptr %5, i32 0, i32 31
  %7 = load ptr, ptr %6, align 8
  %8 = load i32, ptr %4, align 4
  %9 = sext i32 %8 to i64
  %10 = getelementptr inbounds %struct.varinfo2_t, ptr %7, i64 %9
  %11 = load i8, ptr %10, align 4
  %12 = lshr i8 %11, 2
  %13 = and i8 %12, 15
  %14 = zext i8 %13 to i32
  ret i32 %14
}

; Function Attrs: nounwind uwtable
define internal i32 @solver2_lit_removable_rec(ptr noundef %0, i32 noundef %1) #0 {
  %3 = alloca i32, align 4
  %4 = alloca ptr, align 8
  %5 = alloca i32, align 4
  %6 = alloca ptr, align 8
  %7 = alloca i32, align 4
  %8 = alloca i32, align 4
  store ptr %0, ptr %4, align 8
  store i32 %1, ptr %5, align 4
  %9 = load ptr, ptr %4, align 8
  %10 = load i32, ptr %5, align 4
  %11 = call i32 @var_tag(ptr noundef %9, i32 noundef %10)
  %12 = and i32 %11, 2
  %13 = icmp ne i32 %12, 0
  br i1 %13, label %14, label %21

14:                                               ; preds = %2
  %15 = load ptr, ptr %4, align 8
  %16 = load i32, ptr %5, align 4
  %17 = call i32 @var_tag(ptr noundef %15, i32 noundef %16)
  %18 = and i32 %17, 4
  %19 = icmp sgt i32 %18, 0
  %20 = zext i1 %19 to i32
  store i32 %20, ptr %3, align 4
  br label %112

21:                                               ; preds = %2
  %22 = load ptr, ptr %4, align 8
  %23 = load ptr, ptr %4, align 8
  %24 = load i32, ptr %5, align 4
  %25 = call i32 @var_reason(ptr noundef %23, i32 noundef %24)
  %26 = call ptr @clause2_read(ptr noundef %22, i32 noundef %25)
  store ptr %26, ptr %6, align 8
  %27 = load ptr, ptr %6, align 8
  %28 = icmp eq ptr %27, null
  br i1 %28, label %29, label %32

29:                                               ; preds = %21
  %30 = load ptr, ptr %4, align 8
  %31 = load i32, ptr %5, align 4
  call void @var_add_tag(ptr noundef %30, i32 noundef %31, i32 noundef 2)
  store i32 0, ptr %3, align 4
  br label %112

32:                                               ; preds = %21
  store i32 1, ptr %7, align 4
  br label %33

33:                                               ; preds = %91, %32
  %34 = load i32, ptr %7, align 4
  %35 = load ptr, ptr %6, align 8
  %36 = load i32, ptr %35, align 4
  %37 = lshr i32 %36, 11
  %38 = icmp slt i32 %34, %37
  br i1 %38, label %39, label %48

39:                                               ; preds = %33
  %40 = load ptr, ptr %6, align 8
  %41 = getelementptr inbounds %struct.clause_t, ptr %40, i32 0, i32 1
  %42 = load i32, ptr %7, align 4
  %43 = sext i32 %42 to i64
  %44 = getelementptr inbounds [0 x i32], ptr %41, i64 0, i64 %43
  %45 = load i32, ptr %44, align 4
  %46 = call i32 @lit_var(i32 noundef %45)
  store i32 %46, ptr %8, align 4
  %47 = icmp ne i32 %46, 0
  br label %48

48:                                               ; preds = %39, %33
  %49 = phi i1 [ false, %33 ], [ %47, %39 ]
  br i1 %49, label %50, label %94

50:                                               ; preds = %48
  %51 = load ptr, ptr %4, align 8
  %52 = load i32, ptr %8, align 4
  %53 = call i32 @var_tag(ptr noundef %51, i32 noundef %52)
  %54 = and i32 %53, 1
  %55 = icmp ne i32 %54, 0
  br i1 %55, label %56, label %60

56:                                               ; preds = %50
  %57 = load ptr, ptr %4, align 8
  %58 = load i32, ptr %8, align 4
  %59 = call i32 @solver2_lit_removable_rec(ptr noundef %57, i32 noundef %58)
  br label %90

60:                                               ; preds = %50
  %61 = load ptr, ptr %4, align 8
  %62 = load i32, ptr %8, align 4
  %63 = call i32 @var_level(ptr noundef %61, i32 noundef %62)
  %64 = icmp eq i32 %63, 0
  br i1 %64, label %70, label %65

65:                                               ; preds = %60
  %66 = load ptr, ptr %4, align 8
  %67 = load i32, ptr %8, align 4
  %68 = call i32 @var_tag(ptr noundef %66, i32 noundef %67)
  %69 = icmp eq i32 %68, 6
  br i1 %69, label %70, label %71

70:                                               ; preds = %65, %60
  br label %91

71:                                               ; preds = %65
  %72 = load ptr, ptr %4, align 8
  %73 = load i32, ptr %8, align 4
  %74 = call i32 @var_tag(ptr noundef %72, i32 noundef %73)
  %75 = icmp eq i32 %74, 2
  br i1 %75, label %86, label %76

76:                                               ; preds = %71
  %77 = load ptr, ptr %4, align 8
  %78 = load i32, ptr %8, align 4
  %79 = call i32 @var_lev_mark(ptr noundef %77, i32 noundef %78)
  %80 = icmp ne i32 %79, 0
  br i1 %80, label %81, label %86

81:                                               ; preds = %76
  %82 = load ptr, ptr %4, align 8
  %83 = load i32, ptr %8, align 4
  %84 = call i32 @solver2_lit_removable_rec(ptr noundef %82, i32 noundef %83)
  %85 = icmp ne i32 %84, 0
  br i1 %85, label %89, label %86

86:                                               ; preds = %81, %76, %71
  %87 = load ptr, ptr %4, align 8
  %88 = load i32, ptr %5, align 4
  call void @var_add_tag(ptr noundef %87, i32 noundef %88, i32 noundef 2)
  store i32 0, ptr %3, align 4
  br label %112

89:                                               ; preds = %81
  br label %90

90:                                               ; preds = %89, %56
  br label %91

91:                                               ; preds = %90, %70
  %92 = load i32, ptr %7, align 4
  %93 = add nsw i32 %92, 1
  store i32 %93, ptr %7, align 4
  br label %33, !llvm.loop !75

94:                                               ; preds = %48
  %95 = load ptr, ptr %4, align 8
  %96 = getelementptr inbounds %struct.sat_solver2_t, ptr %95, i32 0, i32 22
  %97 = load i32, ptr %96, align 4
  %98 = icmp ne i32 %97, 0
  br i1 %98, label %99, label %109

99:                                               ; preds = %94
  %100 = load ptr, ptr %4, align 8
  %101 = load i32, ptr %5, align 4
  %102 = call i32 @var_tag(ptr noundef %100, i32 noundef %101)
  %103 = and i32 %102, 1
  %104 = icmp ne i32 %103, 0
  br i1 %104, label %105, label %109

105:                                              ; preds = %99
  %106 = load ptr, ptr %4, align 8
  %107 = getelementptr inbounds %struct.sat_solver2_t, ptr %106, i32 0, i32 46
  %108 = load i32, ptr %5, align 4
  call void @veci_push(ptr noundef %107, i32 noundef %108)
  br label %109

109:                                              ; preds = %105, %99, %94
  %110 = load ptr, ptr %4, align 8
  %111 = load i32, ptr %5, align 4
  call void @var_add_tag(ptr noundef %110, i32 noundef %111, i32 noundef 6)
  store i32 1, ptr %3, align 4
  br label %112

112:                                              ; preds = %109, %86, %29, %14
  %113 = load i32, ptr %3, align 4
  ret i32 %113
}