; Function Attrs: nounwind uwtable
define internal fastcc range(i32 0, 2) i32 @solver2_lit_removable_rec(ptr noundef %0, i32 noundef range(i32 -1073741824, 1073741824) %1) unnamed_addr #2 {
  %3 = getelementptr i8, ptr %0, i64 232
  %.val52 = load ptr, ptr %3, align 8
  %4 = sext i32 %1 to i64
  %5 = getelementptr inbounds %struct.varinfo2_t, ptr %.val52, i64 %4
  %6 = load i8, ptr %5, align 4
  %7 = lshr i8 %6, 2
  %8 = zext nneg i8 %7 to i32
  %9 = and i32 %8, 2
  %.not = icmp eq i32 %9, 0
  br i1 %.not, label %12, label %10

10:                                               ; preds = %2
  %11 = lshr i32 %8, 2
  %.lobit = and i32 %11, 1
  br label %102

12:                                               ; preds = %2
  %13 = getelementptr i8, ptr %0, i64 272
  %.val53 = load ptr, ptr %13, align 8
  %14 = getelementptr inbounds i32, ptr %.val53, i64 %4
  %15 = load i32, ptr %14, align 4
  %.not.i.i = icmp eq i32 %15, 0
  br i1 %.not.i.i, label %clause2_read.exit.thread, label %clause2_read.exit

clause2_read.exit:                                ; preds = %12
  %16 = getelementptr i8, ptr %0, i64 152
  %.val.i.i = load i32, ptr %16, align 8
  %17 = ashr i32 %15, %.val.i.i
  %18 = getelementptr i8, ptr %0, i64 156
  %.val5.i.i = load i32, ptr %18, align 4
  %19 = and i32 %.val5.i.i, %15
  %20 = getelementptr i8, ptr %0, i64 168
  %.val6.i.i = load ptr, ptr %20, align 8
  %21 = sext i32 %17 to i64
  %22 = getelementptr inbounds ptr, ptr %.val6.i.i, i64 %21
  %23 = load ptr, ptr %22, align 8
  %24 = sext i32 %19 to i64
  %25 = getelementptr inbounds i32, ptr %23, i64 %24
  %26 = icmp eq ptr %23, null
  br i1 %26, label %clause2_read.exit.thread, label %.preheader

.preheader:                                       ; preds = %clause2_read.exit
  %27 = load i32, ptr %25, align 4
  %28 = icmp ugt i32 %27, 4095
  br i1 %28, label %.lr.ph, label %.critedge

.lr.ph:                                           ; preds = %.preheader
  %29 = getelementptr inbounds nuw i8, ptr %25, i64 4
  %30 = getelementptr i8, ptr %0, i64 240
  %31 = getelementptr i8, ptr %0, i64 352
  br label %40

clause2_read.exit.thread:                         ; preds = %12, %clause2_read.exit
  %32 = and i8 %6, 60
  %33 = icmp eq i8 %32, 0
  br i1 %33, label %34, label %var_add_tag.exit

34:                                               ; preds = %clause2_read.exit.thread
  %35 = getelementptr inbounds nuw i8, ptr %0, i64 296
  tail call fastcc void @veci_push(ptr noundef nonnull %35, i32 noundef %1)
  %.pre.i = load ptr, ptr %3, align 8
  %.phi.trans.insert.i = getelementptr inbounds %struct.varinfo2_t, ptr %.pre.i, i64 %4
  %.pre6.i = load i8, ptr %.phi.trans.insert.i, align 4
  br label %var_add_tag.exit

var_add_tag.exit:                                 ; preds = %clause2_read.exit.thread, %34
  %36 = phi i8 [ %.pre6.i, %34 ], [ %6, %clause2_read.exit.thread ]
  %37 = phi ptr [ %.pre.i, %34 ], [ %.val52, %clause2_read.exit.thread ]
  %38 = getelementptr inbounds %struct.varinfo2_t, ptr %37, i64 %4
  %39 = or i8 %36, 8
  store i8 %39, ptr %38, align 4
  br label %102

40:                                               ; preds = %.lr.ph, %77
  %indvars.iv = phi i64 [ 1, %.lr.ph ], [ %indvars.iv.next, %77 ]
  %41 = getelementptr inbounds nuw [0 x i32], ptr %29, i64 0, i64 %indvars.iv
  %42 = load i32, ptr %41, align 4
  %43 = ashr i32 %42, 1
  %.not41 = icmp ult i32 %42, 2
  %.pre68.pre.pre70 = load ptr, ptr %3, align 8
  br i1 %.not41, label %.critedge, label %44

44:                                               ; preds = %40
  %45 = sext i32 %43 to i64
  %46 = getelementptr inbounds %struct.varinfo2_t, ptr %.pre68.pre.pre70, i64 %45
  %47 = load i8, ptr %46, align 4
  %48 = lshr i8 %47, 2
  %49 = and i8 %48, 15
  %50 = and i8 %47, 4
  %.not44 = icmp eq i8 %50, 0
  br i1 %.not44, label %53, label %51

51:                                               ; preds = %44
  %52 = tail call fastcc i32 @solver2_lit_removable_rec(ptr noundef nonnull %0, i32 noundef %43)
  br label %77

53:                                               ; preds = %44
  %.val = load ptr, ptr %30, align 8
  %54 = getelementptr inbounds i32, ptr %.val, i64 %45
  %55 = load i32, ptr %54, align 4
  %56 = icmp eq i32 %55, 0
  %57 = icmp eq i8 %49, 6
  %or.cond = or i1 %57, %56
  br i1 %or.cond, label %77, label %58

58:                                               ; preds = %53
  %59 = icmp eq i8 %49, 2
  br i1 %59, label %split, label %60

60:                                               ; preds = %58
  %.val55 = load ptr, ptr %31, align 8
  %61 = sext i32 %55 to i64
  %62 = getelementptr inbounds i32, ptr %.val55, i64 %61
  %63 = load i32, ptr %62, align 4
  %.not45 = icmp sgt i32 %63, -1
  br i1 %.not45, label %split, label %64

64:                                               ; preds = %60
  %65 = tail call fastcc i32 @solver2_lit_removable_rec(ptr noundef nonnull %0, i32 noundef %43)
  %.not46 = icmp eq i32 %65, 0
  br i1 %.not46, label %._crit_edge, label %77

._crit_edge:                                      ; preds = %64
  %.pre = load ptr, ptr %3, align 8
  br label %split

split:                                            ; preds = %60, %58, %._crit_edge
  %66 = phi ptr [ %.pre, %._crit_edge ], [ %.pre68.pre.pre70, %58 ], [ %.pre68.pre.pre70, %60 ]
  %67 = getelementptr inbounds %struct.varinfo2_t, ptr %66, i64 %4
  %68 = load i8, ptr %67, align 4
  %69 = and i8 %68, 60
  %70 = icmp eq i8 %69, 0
  br i1 %70, label %71, label %var_add_tag.exit59

71:                                               ; preds = %split
  %72 = getelementptr inbounds nuw i8, ptr %0, i64 296
  tail call fastcc void @veci_push(ptr noundef nonnull %72, i32 noundef %1)
  %.pre.i56 = load ptr, ptr %3, align 8
  %.phi.trans.insert.i57 = getelementptr inbounds %struct.varinfo2_t, ptr %.pre.i56, i64 %4
  %.pre6.i58 = load i8, ptr %.phi.trans.insert.i57, align 4
  br label %var_add_tag.exit59

var_add_tag.exit59:                               ; preds = %split, %71
  %73 = phi i8 [ %.pre6.i58, %71 ], [ %68, %split ]
  %74 = phi ptr [ %.pre.i56, %71 ], [ %66, %split ]
  %75 = getelementptr inbounds %struct.varinfo2_t, ptr %74, i64 %4
  %76 = or i8 %73, 8
  store i8 %76, ptr %75, align 4
  br label %102

77:                                               ; preds = %51, %64, %53
  %indvars.iv.next = add nuw nsw i64 %indvars.iv, 1
  %78 = load i32, ptr %25, align 4
  %79 = lshr i32 %78, 11
  %80 = zext nneg i32 %79 to i64
  %81 = icmp samesign ult i64 %indvars.iv.next, %80
  br i1 %81, label %40, label %..critedge.loopexit_crit_edge, !llvm.loop !79

..critedge.loopexit_crit_edge:                    ; preds = %77
  %.pre68.pre.pre = load ptr, ptr %3, align 8
  br label %.critedge

.critedge:                                        ; preds = %40, %..critedge.loopexit_crit_edge, %.preheader
  %.pre68 = phi ptr [ %.val52, %.preheader ], [ %.pre68.pre.pre, %..critedge.loopexit_crit_edge ], [ %.pre68.pre.pre70, %40 ]
  %82 = getelementptr inbounds nuw i8, ptr %0, i64 108
  %83 = load i32, ptr %82, align 4
  %.not42 = icmp eq i32 %83, 0
  br i1 %.not42, label %90, label %84

84:                                               ; preds = %.critedge
  %85 = getelementptr inbounds %struct.varinfo2_t, ptr %.pre68, i64 %4
  %86 = load i8, ptr %85, align 4
  %87 = and i8 %86, 4
  %.not43 = icmp eq i8 %87, 0
  br i1 %.not43, label %90, label %88

88:                                               ; preds = %84
  %89 = getelementptr inbounds nuw i8, ptr %0, i64 408
  tail call fastcc void @veci_push(ptr noundef nonnull %89, i32 noundef %1)
  %.pre67 = load ptr, ptr %3, align 8
  br label %90

90:                                               ; preds = %88, %84, %.critedge
  %91 = phi ptr [ %.pre67, %88 ], [ %.pre68, %84 ], [ %.pre68, %.critedge ]
  %92 = getelementptr inbounds %struct.varinfo2_t, ptr %91, i64 %4
  %93 = load i8, ptr %92, align 4
  %94 = and i8 %93, 60
  %95 = icmp eq i8 %94, 0
  br i1 %95, label %96, label %var_add_tag.exit63

96:                                               ; preds = %90
  %97 = getelementptr inbounds nuw i8, ptr %0, i64 296
  tail call fastcc void @veci_push(ptr noundef nonnull %97, i32 noundef %1)
  %.pre.i60 = load ptr, ptr %3, align 8
  %.phi.trans.insert.i61 = getelementptr inbounds %struct.varinfo2_t, ptr %.pre.i60, i64 %4
  %.pre6.i62 = load i8, ptr %.phi.trans.insert.i61, align 4
  br label %var_add_tag.exit63

var_add_tag.exit63:                               ; preds = %90, %96
  %98 = phi i8 [ %.pre6.i62, %96 ], [ %93, %90 ]
  %99 = phi ptr [ %.pre.i60, %96 ], [ %91, %90 ]
  %100 = getelementptr inbounds %struct.varinfo2_t, ptr %99, i64 %4
  %101 = or i8 %98, 24
  store i8 %101, ptr %100, align 4
  br label %102

102:                                              ; preds = %var_add_tag.exit63, %var_add_tag.exit59, %var_add_tag.exit, %10
  %.0 = phi i32 [ %.lobit, %10 ], [ 0, %var_add_tag.exit ], [ 0, %var_add_tag.exit59 ], [ 1, %var_add_tag.exit63 ]
  ret i32 %.0
}